target datalayout = "e-m:e-p270:32:32-p271:32:32-p272:64:64-i64:64-i128:128-f80:128-n8:16:32:64-S128"
target triple = "x86_64-pc-linux-gnu"

; Function Attrs: alwaysinline nounwind
define internal ptr @memcpy.inline(ptr noalias nonnull %0, ptr noalias nonnull %1, i64 %2) #4 {
  %4 = alloca ptr, align 8
  %5 = alloca ptr, align 8
  %6 = alloca i64, align 8
  store ptr %0, ptr %4, align 8
  store ptr %1, ptr %5, align 8
  store i64 %2, ptr %6, align 8
  %7 = load ptr, ptr %4, align 8
  %8 = load ptr, ptr %5, align 8
  %9 = load i64, ptr %6, align 8
  %10 = load ptr, ptr %4, align 8
  %11 = call i64 @llvm.objectsize.i64.p0(ptr %10, i1 false, i1 true, i1 true)
  %12 = call ptr @__memcpy_chk(ptr noundef %7, ptr noundef %8, i64 noundef %9, i64 noundef %11) #7
  ret ptr %12
}

; Function Attrs: nounwind ssp uwtable
define internal void @u32_to_string(ptr noundef %0, i32 noundef %1) #0 {
  %3 = alloca ptr, align 8
  %4 = alloca i32, align 4
  %5 = alloca [10 x i8], align 1
  %6 = alloca i64, align 8
  store ptr %0, ptr %3, align 8
  store i32 %1, ptr %4, align 4
  call void @llvm.lifetime.start.p0(i64 10, ptr %5) #7
  call void @llvm.lifetime.start.p0(i64 8, ptr %6) #7
  store i64 10, ptr %6, align 8
  br label %7

7:                                                ; preds = %23, %2
  %8 = load i32, ptr %4, align 4
  %9 = urem i32 %8, 10
  %10 = add i32 %9, 48
  %11 = trunc i32 %10 to i8
  %12 = load i64, ptr %6, align 8
  %13 = add i64 %12, -1
  store i64 %13, ptr %6, align 8
  %14 = getelementptr [10 x i8], ptr %5, i64 0, i64 %13
  store i8 %11, ptr %14, align 1
  %15 = load i32, ptr %4, align 4
  %16 = udiv i32 %15, 10
  store i32 %16, ptr %4, align 4
  br label %17

17:                                               ; preds = %7
  %18 = load i32, ptr %4, align 4
  %19 = icmp ne i32 %18, 0
  br i1 %19, label %20, label %23

20:                                               ; preds = %17
  %21 = load i64, ptr %6, align 8
  %22 = icmp ne i64 %21, 0
  br label %23

23:                                               ; preds = %20, %17
  %24 = phi i1 [ false, %17 ], [ %22, %20 ]
  br i1 %24, label %7, label %25, !llvm.loop !4

25:                                               ; preds = %23
  %26 = load ptr, ptr %3, align 8
  %27 = load i64, ptr %6, align 8
  %28 = getelementptr [10 x i8], ptr %5, i64 0, i64 %27
  %29 = load i64, ptr %6, align 8
  %30 = sub i64 10, %29
  %31 = call ptr @memcpy.inline(ptr noundef %26, ptr noundef %28, i64 noundef %30) #7
  %32 = load ptr, ptr %3, align 8
  %33 = load i64, ptr %6, align 8
  %34 = sub i64 10, %33
  %35 = getelementptr i8, ptr %32, i64 %34
  store i8 0, ptr %35, align 1
  call void @llvm.lifetime.end.p0(i64 8, ptr %6) #7
  call void @llvm.lifetime.end.p0(i64 10, ptr %5) #7
  ret void
}