; Function Attrs: nofree nounwind ssp memory(argmem: readwrite) uwtable
define internal fastcc void @u32_to_string(ptr noundef nonnull %0, i32 noundef %1) unnamed_addr #5 {
  %3 = alloca [10 x i8], align 1
  call void @llvm.lifetime.start.p0(i64 10, ptr nonnull %3) #9
  br label %4

4:                                                ; preds = %4, %2
  %.09 = phi i32 [ %1, %2 ], [ %10, %4 ]
  %.0 = phi i64 [ 10, %2 ], [ %8, %4 ]
  %5 = urem i32 %.09, 10
  %6 = trunc nuw nsw i32 %5 to i8
  %7 = or disjoint i8 %6, 48
  %8 = add nsw i64 %.0, -1
  %9 = getelementptr [10 x i8], ptr %3, i64 0, i64 %8
  store i8 %7, ptr %9, align 1
  %10 = udiv i32 %.09, 10
  %11 = icmp ugt i32 %.09, 9
  %12 = icmp ne i64 %8, 0
  %13 = and i1 %11, %12
  br i1 %13, label %4, label %14, !llvm.loop !4

14:                                               ; preds = %4
  %15 = getelementptr [10 x i8], ptr %3, i64 0, i64 %8
  %16 = sub i64 11, %.0
  call void @llvm.memcpy.p0.p0.i64(ptr noundef nonnull align 1 %0, ptr noundef nonnull align 1 %15, i64 noundef %16, i1 noundef false) #9
  %17 = getelementptr i8, ptr %0, i64 %16
  store i8 0, ptr %17, align 1
  call void @llvm.lifetime.end.p0(i64 10, ptr nonnull %3) #9
  ret void
}